; Function Attrs: nounwind uwtable
define void @cli_event_fastdata(ptr noundef %0, i32 noundef %1, ptr noundef %2, i32 noundef %3) local_unnamed_addr #5 {
  %.not.i = icmp eq ptr %0, null
  br i1 %.not.i, label %cli_event_error_str.exit, label %5

5:                                                ; preds = %4
  %6 = getelementptr inbounds nuw i8, ptr %0, i64 40
  %7 = load i32, ptr %6, align 8, !tbaa !3
  %.not8.i = icmp ult i32 %1, %7
  br i1 %.not8.i, label %get_event.exit, label %8

8:                                                ; preds = %5
  tail call void (ptr, ...) @cli_warnmsg(ptr noundef nonnull @.str.8, ptr noundef nonnull @.str.18) #14
  %9 = getelementptr inbounds nuw i8, ptr %0, i64 28
  %10 = load i16, ptr %9, align 4
  %11 = lshr i16 %10, 8
  %trunc.i.i.i = trunc nuw i16 %11 to i8
  switch i8 %trunc.i.i.i, label %cli_event_error_str.exit [
    i8 0, label %12
    i8 1, label %17
  ]

12:                                               ; preds = %8
  %13 = getelementptr inbounds nuw i8, ptr %0, i64 16
  store ptr @.str.18, ptr %13, align 8, !tbaa !17
  %14 = getelementptr inbounds nuw i8, ptr %0, i64 24
  %15 = load i32, ptr %14, align 8, !tbaa !18
  %16 = add i32 %15, 1
  store i32 %16, ptr %14, align 8, !tbaa !18
  br label %cli_event_error_str.exit

17:                                               ; preds = %8
  %18 = getelementptr inbounds nuw i8, ptr %0, i64 24
  %19 = load i32, ptr %18, align 8, !tbaa !18
  %20 = shl i32 %19, 3
  %21 = add i32 %20, 8
  %22 = getelementptr inbounds nuw i8, ptr %0, i64 16
  %23 = load ptr, ptr %22, align 8, !tbaa !17
  %24 = zext i32 %21 to i64
  %25 = tail call ptr @cli_safer_realloc(ptr noundef %23, i64 noundef %24) #14
  %.not.i.i.i.i = icmp eq ptr %25, null
  br i1 %.not.i.i.i.i, label %26, label %34

26:                                               ; preds = %17
  %27 = getelementptr inbounds nuw i8, ptr %0, i64 32
  %28 = load i64, ptr %27, align 8, !tbaa !15
  %29 = add i64 %28, %24
  store i64 %29, ptr %27, align 8, !tbaa !15
  %30 = getelementptr inbounds nuw i8, ptr %0, i64 44
  %31 = load i32, ptr %30, align 4, !tbaa !16
  %32 = add i32 %31, 1
  store i32 %32, ptr %30, align 4, !tbaa !16
  %.not6.i.i.i.i.i = icmp eq i32 %21, 0
  br i1 %.not6.i.i.i.i.i, label %cli_event_error_str.exit, label %33

33:                                               ; preds = %26
  tail call void (ptr, ...) @cli_errmsg(ptr noundef nonnull @.str.1, i32 noundef %21) #14
  br label %cli_event_error_str.exit

34:                                               ; preds = %17
  store ptr %25, ptr %22, align 8, !tbaa !17
  %35 = load i32, ptr %18, align 8, !tbaa !18
  %36 = zext i32 %35 to i64
  %37 = getelementptr inbounds nuw %union.ev_val, ptr %25, i64 %36
  store i64 ptrtoint (ptr @.str.18 to i64), ptr %37, align 8, !tbaa !17
  %38 = load i32, ptr %18, align 8, !tbaa !18
  %39 = add i32 %38, 1
  store i32 %39, ptr %18, align 8, !tbaa !18
  br label %cli_event_error_str.exit

get_event.exit:                                   ; preds = %5
  %40 = load ptr, ptr %0, align 8, !tbaa !13
  %41 = zext i32 %1 to i64
  %42 = getelementptr inbounds nuw %struct.cli_event, ptr %40, i64 %41
  %.not = icmp eq ptr %40, null
  br i1 %.not, label %cli_event_error_str.exit, label %43

43:                                               ; preds = %get_event.exit
  %44 = getelementptr inbounds nuw i8, ptr %42, i64 20
  %45 = load i16, ptr %44, align 4
  %46 = and i16 %45, 255
  %.not10 = icmp eq i16 %46, 3
  br i1 %.not10, label %79, label %47

47:                                               ; preds = %43
  tail call void (ptr, ...) @cli_warnmsg(ptr noundef nonnull @.str.8, ptr noundef nonnull @.str.11) #14
  %48 = getelementptr inbounds nuw i8, ptr %0, i64 28
  %49 = load i16, ptr %48, align 4
  %50 = lshr i16 %49, 8
  %trunc.i.i = trunc nuw i16 %50 to i8
  switch i8 %trunc.i.i, label %cli_event_error_str.exit [
    i8 0, label %51
    i8 1, label %56
  ]

51:                                               ; preds = %47
  %52 = getelementptr inbounds nuw i8, ptr %0, i64 16
  store ptr @.str.11, ptr %52, align 8, !tbaa !17
  %53 = getelementptr inbounds nuw i8, ptr %0, i64 24
  %54 = load i32, ptr %53, align 8, !tbaa !18
  %55 = add i32 %54, 1
  store i32 %55, ptr %53, align 8, !tbaa !18
  br label %cli_event_error_str.exit

56:                                               ; preds = %47
  %57 = getelementptr inbounds nuw i8, ptr %0, i64 24
  %58 = load i32, ptr %57, align 8, !tbaa !18
  %59 = shl i32 %58, 3
  %60 = add i32 %59, 8
  %61 = getelementptr inbounds nuw i8, ptr %0, i64 16
  %62 = load ptr, ptr %61, align 8, !tbaa !17
  %63 = zext i32 %60 to i64
  %64 = tail call ptr @cli_safer_realloc(ptr noundef %62, i64 noundef %63) #14
  %.not.i.i.i = icmp eq ptr %64, null
  br i1 %.not.i.i.i, label %65, label %73

65:                                               ; preds = %56
  %66 = getelementptr inbounds nuw i8, ptr %0, i64 32
  %67 = load i64, ptr %66, align 8, !tbaa !15
  %68 = add i64 %67, %63
  store i64 %68, ptr %66, align 8, !tbaa !15
  %69 = getelementptr inbounds nuw i8, ptr %0, i64 44
  %70 = load i32, ptr %69, align 4, !tbaa !16
  %71 = add i32 %70, 1
  store i32 %71, ptr %69, align 4, !tbaa !16
  %.not6.i.i.i.i = icmp eq i32 %60, 0
  br i1 %.not6.i.i.i.i, label %cli_event_error_str.exit, label %72

72:                                               ; preds = %65
  tail call void (ptr, ...) @cli_errmsg(ptr noundef nonnull @.str.1, i32 noundef %60) #14
  br label %cli_event_error_str.exit

73:                                               ; preds = %56
  store ptr %64, ptr %61, align 8, !tbaa !17
  %74 = load i32, ptr %57, align 8, !tbaa !18
  %75 = zext i32 %74 to i64
  %76 = getelementptr inbounds nuw %union.ev_val, ptr %64, i64 %75
  store i64 ptrtoint (ptr @.str.11 to i64), ptr %76, align 8, !tbaa !17
  %77 = load i32, ptr %57, align 8, !tbaa !18
  %78 = add i32 %77, 1
  store i32 %78, ptr %57, align 8, !tbaa !18
  br label %cli_event_error_str.exit

79:                                               ; preds = %43
  %80 = getelementptr inbounds nuw i8, ptr %42, i64 8
  %81 = load i64, ptr %80, align 8, !tbaa !17
  %82 = trunc i64 %81 to i32
  %83 = zext i32 %3 to i64
  %84 = tail call i32 @CrcUpdate(i32 noundef %82, ptr noundef %2, i64 noundef %83) #14
  %85 = zext i32 %84 to i64
  store i64 %85, ptr %80, align 8, !tbaa !17
  %86 = getelementptr inbounds nuw i8, ptr %42, i64 16
  %87 = load i32, ptr %86, align 8, !tbaa !18
  %88 = add i32 %87, %3
  store i32 %88, ptr %86, align 8, !tbaa !18
  br label %cli_event_error_str.exit

cli_event_error_str.exit:                         ; preds = %34, %33, %26, %12, %8, %4, %73, %72, %65, %51, %47, %get_event.exit, %79
  ret void
}